target datalayout = "e-m:e-p270:32:32-p271:32:32-p272:64:64-i64:64-i128:128-f80:128-n8:16:32:64-S128"
target triple = "x86_64-pc-linux-gnu"

%class.JvmtiEventCollector.base = type <{ ptr, ptr, i8 }>
%class.JvmtiObjectAllocEventCollector = type { %class.JvmtiEventCollector.base, ptr, i8, ptr }
%class.JvmtiEventCollector = type <{ ptr, ptr, i8, [7 x i8] }>

; Function Attrs: mustprogress nounwind uwtable
define linkonce_odr hidden void @_ZN19JvmtiEventCollectorC2Ev(ptr noundef nonnull align 8 dereferenceable(17) %0) unnamed_addr #1 comdat align 2 {
  %2 = alloca ptr, align 8
  store ptr %0, ptr %2, align 8
  %3 = load ptr, ptr %2, align 8
  store ptr getelementptr inbounds inrange(-16, 24) ({ [5 x ptr] }, ptr @_ZTV19JvmtiEventCollector, i32 0, i32 0, i32 2), ptr %3, align 8
  %4 = getelementptr inbounds %class.JvmtiEventCollector, ptr %3, i32 0, i32 1
  store ptr null, ptr %4, align 8
  %5 = getelementptr inbounds %class.JvmtiEventCollector, ptr %3, i32 0, i32 2
  store i8 0, ptr %5, align 8
  ret void
}

; Function Attrs: mustprogress nounwind uwtable
define hidden void @_ZN30JvmtiObjectAllocEventCollectorC2Ev(ptr noundef nonnull align 8 dereferenceable(48) %0) unnamed_addr #1 align 2 {
  %2 = alloca ptr, align 8
  store ptr %0, ptr %2, align 8
  %3 = load ptr, ptr %2, align 8
  call void @_ZN19JvmtiEventCollectorC2Ev(ptr noundef nonnull align 8 dereferenceable(17) %3)
  store ptr getelementptr inbounds inrange(-16, 24) ({ [5 x ptr] }, ptr @_ZTV30JvmtiObjectAllocEventCollector, i32 0, i32 0, i32 2), ptr %3, align 8
  %4 = getelementptr inbounds %class.JvmtiObjectAllocEventCollector, ptr %3, i32 0, i32 1
  store ptr null, ptr %4, align 8
  %5 = getelementptr inbounds %class.JvmtiObjectAllocEventCollector, ptr %3, i32 0, i32 2
  store i8 0, ptr %5, align 8
  %6 = getelementptr inbounds %class.JvmtiObjectAllocEventCollector, ptr %3, i32 0, i32 3
  store ptr null, ptr %6, align 8
  ret void
}