; Function Attrs: mustprogress nofree norecurse nosync nounwind willreturn memory(argmem: write) uwtable
define hidden void @_ZN30JvmtiObjectAllocEventCollectorC2Ev(ptr nocapture noundef nonnull writeonly align 8 dereferenceable(48) %0) unnamed_addr #2 align 2 {
  %2 = getelementptr inbounds i8, ptr %0, i64 8
  store ptr null, ptr %2, align 8
  %3 = getelementptr inbounds i8, ptr %0, i64 16
  store i8 0, ptr %3, align 8
  store ptr getelementptr inbounds inrange(-16, 24) (i8, ptr @_ZTV30JvmtiObjectAllocEventCollector, i64 16), ptr %0, align 8
  %4 = getelementptr inbounds i8, ptr %0, i64 24
  store ptr null, ptr %4, align 8
  %5 = getelementptr inbounds i8, ptr %0, i64 32
  store i8 0, ptr %5, align 8
  %6 = getelementptr inbounds i8, ptr %0, i64 40
  store ptr null, ptr %6, align 8
  ret void
}